; Function Attrs: mustprogress uwtable
define void @_ZN2cv12cornerHarrisERKNS_11_InputArrayERKNS_12_OutputArrayEiidi(ptr noundef nonnull align 8 dereferenceable(24) %0, ptr noundef nonnull align 8 dereferenceable(24) %1, i32 noundef %2, i32 noundef %3, double noundef %4, i32 noundef %5) local_unnamed_addr #0 personality ptr @__gxx_personality_v0 {
  %7 = alloca %"class.cv::utils::trace::details::Region", align 8
  %8 = alloca %"class.cv::Mat", align 8
  %9 = alloca %"class.cv::Mat", align 8
  call void @llvm.lifetime.start.p0(i64 16, ptr nonnull %7) #13
  call void @_ZN2cv5utils5trace7details6RegionC1ERKNS3_21LocationStaticStorageE(ptr noundef nonnull align 8 dereferenceable(12) %7, ptr noundef nonnull align 8 dereferenceable(32) @_ZZN2cv12cornerHarrisERKNS_11_InputArrayERKNS_12_OutputArrayEiidiE25__cv_trace_location_fn636)
  call void @llvm.lifetime.start.p0(i64 96, ptr nonnull %8) #13
  %10 = invoke noundef i32 @_ZNK2cv11_InputArray4kindEv(ptr noundef nonnull align 8 dereferenceable(24) %0)
          to label %.noexc unwind label %36

.noexc:                                           ; preds = %6
  %11 = icmp eq i32 %10, 65536
  br i1 %11, label %12, label %15

12:                                               ; preds = %.noexc
  %13 = getelementptr inbounds nuw i8, ptr %0, i64 8
  %14 = load ptr, ptr %13, align 8, !tbaa !3, !noalias !52
  invoke void @_ZN2cv3MatC1ERKS0_(ptr noundef nonnull align 8 dereferenceable(96) %8, ptr noundef nonnull align 8 dereferenceable(96) %14)
          to label %16 unwind label %36

15:                                               ; preds = %.noexc
  invoke void @_ZNK2cv11_InputArray7getMat_Ei(ptr dead_on_unwind nonnull writable sret(%"class.cv::Mat") align 8 %8, ptr noundef nonnull align 8 dereferenceable(24) %0, i32 noundef -1)
          to label %16 unwind label %36

16:                                               ; preds = %15, %12
  %17 = getelementptr inbounds nuw i8, ptr %8, i64 64
  %18 = load ptr, ptr %17, align 8, !tbaa !13
  %19 = getelementptr inbounds nuw i8, ptr %18, i64 4
  %20 = load i32, ptr %19, align 4, !tbaa !16
  %21 = load i32, ptr %18, align 4, !tbaa !16
  %.sroa.2.0.insert.ext.i = zext i32 %21 to i64
  %.sroa.2.0.insert.shift.i = shl nuw i64 %.sroa.2.0.insert.ext.i, 32
  %.sroa.0.0.insert.ext.i = zext i32 %20 to i64
  %.sroa.0.0.insert.insert.i = or disjoint i64 %.sroa.2.0.insert.shift.i, %.sroa.0.0.insert.ext.i
  invoke void @_ZNK2cv12_OutputArray6createENS_5Size_IiEEiibNS0_9DepthMaskE(ptr noundef nonnull align 8 dereferenceable(24) %1, i64 %.sroa.0.0.insert.insert.i, i32 noundef 5, i32 noundef -1, i1 noundef zeroext false, i32 noundef 0)
          to label %22 unwind label %38

22:                                               ; preds = %16
  call void @llvm.lifetime.start.p0(i64 96, ptr nonnull %9) #13
  %23 = invoke noundef i32 @_ZNK2cv11_InputArray4kindEv(ptr noundef nonnull align 8 dereferenceable(24) %1)
          to label %.noexc16 unwind label %40

.noexc16:                                         ; preds = %22
  %24 = icmp eq i32 %23, 65536
  br i1 %24, label %25, label %28

25:                                               ; preds = %.noexc16
  %26 = getelementptr inbounds nuw i8, ptr %1, i64 8
  %27 = load ptr, ptr %26, align 8, !tbaa !3, !noalias !55
  invoke void @_ZN2cv3MatC1ERKS0_(ptr noundef nonnull align 8 dereferenceable(96) %9, ptr noundef nonnull align 8 dereferenceable(96) %27)
          to label %_ZNK2cv11_InputArray6getMatEi.exit19 unwind label %40

28:                                               ; preds = %.noexc16
  invoke void @_ZNK2cv11_InputArray7getMat_Ei(ptr dead_on_unwind nonnull writable sret(%"class.cv::Mat") align 8 %9, ptr noundef nonnull align 8 dereferenceable(24) %1, i32 noundef -1)
          to label %_ZNK2cv11_InputArray6getMatEi.exit19 unwind label %40

_ZNK2cv11_InputArray6getMatEi.exit19:             ; preds = %25, %28
  invoke fastcc void @_ZN2cvL19cornerEigenValsVecsERKNS_3MatERS0_iiidi(ptr noundef nonnull align 8 dereferenceable(96) %8, ptr noundef nonnull align 8 dereferenceable(96) %9, i32 noundef %2, i32 noundef %3, i32 noundef 1, double noundef %4, i32 noundef %5)
          to label %29 unwind label %42

29:                                               ; preds = %_ZNK2cv11_InputArray6getMatEi.exit19
  call void @_ZN2cv3MatD1Ev(ptr noundef nonnull align 8 dereferenceable(96) %9) #13
  call void @llvm.lifetime.end.p0(i64 96, ptr nonnull %9) #13
  call void @_ZN2cv3MatD1Ev(ptr noundef nonnull align 8 dereferenceable(96) %8) #13
  call void @llvm.lifetime.end.p0(i64 96, ptr nonnull %8) #13
  %30 = getelementptr inbounds nuw i8, ptr %7, i64 8
  %31 = load i32, ptr %30, align 8, !tbaa !20
  %.not.i = icmp eq i32 %31, 0
  br i1 %.not.i, label %_ZN2cv5utils5trace7details6RegionD2Ev.exit, label %32

32:                                               ; preds = %29
  invoke void @_ZN2cv5utils5trace7details6Region7destroyEv(ptr noundef nonnull align 8 dereferenceable(12) %7)
          to label %_ZN2cv5utils5trace7details6RegionD2Ev.exit unwind label %33

33:                                               ; preds = %32
  %34 = landingpad { ptr, i32 }
          catch ptr null
  %35 = extractvalue { ptr, i32 } %34, 0
  call void @__clang_call_terminate(ptr %35) #14
  unreachable

_ZN2cv5utils5trace7details6RegionD2Ev.exit:       ; preds = %29, %32
  call void @llvm.lifetime.end.p0(i64 16, ptr nonnull %7) #13
  ret void

36:                                               ; preds = %15, %12, %6
  %37 = landingpad { ptr, i32 }
          cleanup
  br label %46

38:                                               ; preds = %16
  %39 = landingpad { ptr, i32 }
          cleanup
  br label %45

40:                                               ; preds = %28, %25, %22
  %41 = landingpad { ptr, i32 }
          cleanup
  br label %44

42:                                               ; preds = %_ZNK2cv11_InputArray6getMatEi.exit19
  %43 = landingpad { ptr, i32 }
          cleanup
  call void @_ZN2cv3MatD1Ev(ptr noundef nonnull align 8 dereferenceable(96) %9) #13
  br label %44

44:                                               ; preds = %42, %40
  %.pn = phi { ptr, i32 } [ %43, %42 ], [ %41, %40 ]
  call void @llvm.lifetime.end.p0(i64 96, ptr nonnull %9) #13
  br label %45

45:                                               ; preds = %44, %38
  %.pn.pn = phi { ptr, i32 } [ %.pn, %44 ], [ %39, %38 ]
  call void @_ZN2cv3MatD1Ev(ptr noundef nonnull align 8 dereferenceable(96) %8) #13
  br label %46

46:                                               ; preds = %45, %36
  %.pn.pn.pn = phi { ptr, i32 } [ %.pn.pn, %45 ], [ %37, %36 ]
  call void @llvm.lifetime.end.p0(i64 96, ptr nonnull %8) #13
  call void @_ZN2cv5utils5trace7details6RegionD2Ev(ptr noundef nonnull align 8 dereferenceable(12) %7) #13
  call void @llvm.lifetime.end.p0(i64 16, ptr nonnull %7) #13
  resume { ptr, i32 } %.pn.pn.pn
}